target datalayout = "e-m:e-p270:32:32-p271:32:32-p272:64:64-i64:64-i128:128-f80:128-n8:16:32:64-S128"
target triple = "x86_64-pc-linux-gnu"

%struct.ec_group_st = type { ptr, ptr, %struct.bignum_st, %struct.bignum_st, i32, ptr, %struct.bignum_st, %struct.bignum_st, %struct.bignum_st, i32, ptr, %struct.bignum_st }
%struct.bignum_st = type { ptr, i32, i32, i32, i32 }
%struct.ec_point_st = type { ptr, %struct.bignum_st, %struct.bignum_st, %struct.bignum_st }

; Function Attrs: nounwind uwtable
define hidden i32 @ec_GFp_simple_invert(ptr noundef %0, ptr noundef %1, ptr noundef %2) #0 {
  %4 = alloca i32, align 4
  %5 = alloca ptr, align 8
  %6 = alloca ptr, align 8
  %7 = alloca ptr, align 8
  store ptr %0, ptr %5, align 8, !tbaa !6
  store ptr %1, ptr %6, align 8, !tbaa !28
  store ptr %2, ptr %7, align 8, !tbaa !21
  %8 = load ptr, ptr %5, align 8, !tbaa !6
  %9 = load ptr, ptr %6, align 8, !tbaa !28
  %10 = call i32 @EC_POINT_is_at_infinity(ptr noundef %8, ptr noundef %9)
  %11 = icmp ne i32 %10, 0
  br i1 %11, label %17, label %12

12:                                               ; preds = %3
  %13 = load ptr, ptr %6, align 8, !tbaa !28
  %14 = getelementptr inbounds nuw %struct.ec_point_st, ptr %13, i32 0, i32 2
  %15 = call i32 @BN_is_zero(ptr noundef %14)
  %16 = icmp ne i32 %15, 0
  br i1 %16, label %17, label %18

17:                                               ; preds = %12, %3
  store i32 1, ptr %4, align 4
  br label %26

18:                                               ; preds = %12
  %19 = load ptr, ptr %6, align 8, !tbaa !28
  %20 = getelementptr inbounds nuw %struct.ec_point_st, ptr %19, i32 0, i32 2
  %21 = load ptr, ptr %5, align 8, !tbaa !6
  %22 = getelementptr inbounds nuw %struct.ec_group_st, ptr %21, i32 0, i32 6
  %23 = load ptr, ptr %6, align 8, !tbaa !28
  %24 = getelementptr inbounds nuw %struct.ec_point_st, ptr %23, i32 0, i32 2
  %25 = call i32 @BN_usub(ptr noundef %20, ptr noundef %22, ptr noundef %24)
  store i32 %25, ptr %4, align 4
  br label %26

26:                                               ; preds = %18, %17
  %27 = load i32, ptr %4, align 4
  ret i32 %27
}