; Function Attrs: nounwind uwtable
define hidden i32 @ec_GFp_simple_invert(ptr noundef %0, ptr noundef %1, ptr noundef readnone captures(none) %2) local_unnamed_addr #0 {
  %4 = tail call i32 @EC_POINT_is_at_infinity(ptr noundef %0, ptr noundef %1) #5
  %.not = icmp eq i32 %4, 0
  br i1 %.not, label %5, label %11

5:                                                ; preds = %3
  %6 = getelementptr inbounds nuw i8, ptr %1, i64 32
  %7 = tail call i32 @BN_is_zero(ptr noundef nonnull %6) #5
  %.not6 = icmp eq i32 %7, 0
  br i1 %.not6, label %8, label %11

8:                                                ; preds = %5
  %9 = getelementptr inbounds nuw i8, ptr %0, i64 80
  %10 = tail call i32 @BN_usub(ptr noundef nonnull %6, ptr noundef nonnull %9, ptr noundef nonnull %6) #5
  br label %11

11:                                               ; preds = %3, %5, %8
  %.0 = phi i32 [ %10, %8 ], [ 1, %5 ], [ 1, %3 ]
  ret i32 %.0
}